; Function Attrs: nounwind uwtable
define range(i32 -40, 1) i32 @CVodeSensEEtolerances(ptr noundef captures(address_is_null) %0) local_unnamed_addr #0 {
  %2 = icmp eq ptr %0, null
  br i1 %2, label %3, label %4

3:                                                ; preds = %1
  tail call void (ptr, i32, i32, ptr, ptr, ptr, ...) @cvProcessError(ptr noundef null, i32 noundef -21, i32 noundef 2231, ptr noundef nonnull @__func__.CVodeSensEEtolerances, ptr noundef nonnull @.str, ptr noundef nonnull @.str.4)
  br label %11

4:                                                ; preds = %1
  %5 = getelementptr inbounds nuw i8, ptr %0, i64 2144
  %6 = load i32, ptr %5, align 8, !tbaa !155
  %7 = icmp eq i32 %6, 0
  br i1 %7, label %8, label %9

8:                                                ; preds = %4
  tail call void (ptr, i32, i32, ptr, ptr, ptr, ...) @cvProcessError(ptr noundef nonnull %0, i32 noundef -40, i32 noundef 2240, ptr noundef nonnull @__func__.CVodeSensEEtolerances, ptr noundef nonnull @.str, ptr noundef nonnull @.str.23)
  br label %11

9:                                                ; preds = %4
  %10 = getelementptr inbounds nuw i8, ptr %0, i64 228
  store i32 4, ptr %10, align 4, !tbaa !186
  br label %11

11:                                               ; preds = %9, %8, %3
  %.0 = phi i32 [ -21, %3 ], [ -40, %8 ], [ 0, %9 ]
  ret i32 %.0
}